; Function Attrs: mustprogress uwtable
define hidden void @_ZN4lean15replace_visitor9visit_letERKNS_4exprE(ptr dead_on_unwind noalias writable sret(%"class.lean::expr") align 8 %0, ptr noundef nonnull align 8 dereferenceable(64) %1, ptr noundef nonnull align 8 dereferenceable(8) %2) unnamed_addr #0 align 2 personality ptr @__gxx_personality_v0 {
  %4 = alloca %"class.lean::expr", align 8
  %5 = alloca %"class.lean::expr", align 8
  %6 = alloca %"class.lean::expr", align 8
  call void @llvm.lifetime.start.p0(i64 8, ptr nonnull %4) #14
  %7 = load ptr, ptr %2, align 8, !tbaa !3
  %8 = getelementptr inbounds nuw i8, ptr %7, i64 16
  %9 = load ptr, ptr %1, align 8, !tbaa !12
  %10 = getelementptr inbounds nuw i8, ptr %9, i64 104
  %11 = load ptr, ptr %10, align 8
  call void %11(ptr dead_on_unwind nonnull writable sret(%"class.lean::expr") align 8 %4, ptr noundef nonnull align 8 dereferenceable(64) %1, ptr noundef nonnull align 8 dereferenceable(8) %8)
  call void @llvm.lifetime.start.p0(i64 8, ptr nonnull %5) #14
  %12 = load ptr, ptr %2, align 8, !tbaa !3
  %13 = getelementptr inbounds nuw i8, ptr %12, i64 24
  %14 = load ptr, ptr %1, align 8, !tbaa !12
  %15 = getelementptr inbounds nuw i8, ptr %14, i64 104
  %16 = load ptr, ptr %15, align 8
  invoke void %16(ptr dead_on_unwind nonnull writable sret(%"class.lean::expr") align 8 %5, ptr noundef nonnull align 8 dereferenceable(64) %1, ptr noundef nonnull align 8 dereferenceable(8) %13)
          to label %17 unwind label %64

17:                                               ; preds = %3
  call void @llvm.lifetime.start.p0(i64 8, ptr nonnull %6) #14
  %18 = load ptr, ptr %2, align 8, !tbaa !3
  %19 = getelementptr inbounds nuw i8, ptr %18, i64 32
  %20 = load ptr, ptr %1, align 8, !tbaa !12
  %21 = getelementptr inbounds nuw i8, ptr %20, i64 104
  %22 = load ptr, ptr %21, align 8
  invoke void %22(ptr dead_on_unwind nonnull writable sret(%"class.lean::expr") align 8 %6, ptr noundef nonnull align 8 dereferenceable(64) %1, ptr noundef nonnull align 8 dereferenceable(8) %19)
          to label %23 unwind label %66

23:                                               ; preds = %17
  invoke void @_ZN4lean10update_letERKNS_4exprES2_S2_S2_(ptr dead_on_unwind writable sret(%"class.lean::expr") align 8 %0, ptr noundef nonnull align 8 dereferenceable(8) %2, ptr noundef nonnull align 8 dereferenceable(8) %4, ptr noundef nonnull align 8 dereferenceable(8) %5, ptr noundef nonnull align 8 dereferenceable(8) %6)
          to label %24 unwind label %68

24:                                               ; preds = %23
  %25 = load ptr, ptr %6, align 8, !tbaa !3
  %26 = ptrtoint ptr %25 to i64
  %27 = and i64 %26, 1
  %.not.i.i = icmp eq i64 %27, 0
  br i1 %.not.i.i, label %28, label %_ZN4lean10object_refD2Ev.exit

28:                                               ; preds = %24
  %29 = load i32, ptr %25, align 4, !tbaa !8
  %30 = icmp sgt i32 %29, 1
  br i1 %30, label %31, label %33, !prof !11

31:                                               ; preds = %28
  %32 = add nsw i32 %29, -1
  store i32 %32, ptr %25, align 4, !tbaa !8
  br label %_ZN4lean10object_refD2Ev.exit

33:                                               ; preds = %28
  %.not.i.i.i = icmp eq i32 %29, 0
  br i1 %.not.i.i.i, label %_ZN4lean10object_refD2Ev.exit, label %34

34:                                               ; preds = %33
  invoke void @lean_dec_ref_cold(ptr noundef nonnull %25)
          to label %_ZN4lean10object_refD2Ev.exit unwind label %35

35:                                               ; preds = %34
  %36 = landingpad { ptr, i32 }
          catch ptr null
  %37 = extractvalue { ptr, i32 } %36, 0
  call void @__clang_call_terminate(ptr %37) #15
  unreachable

_ZN4lean10object_refD2Ev.exit:                    ; preds = %24, %31, %33, %34
  call void @llvm.lifetime.end.p0(i64 8, ptr nonnull %6) #14
  %38 = load ptr, ptr %5, align 8, !tbaa !3
  %39 = ptrtoint ptr %38 to i64
  %40 = and i64 %39, 1
  %.not.i.i10 = icmp eq i64 %40, 0
  br i1 %.not.i.i10, label %41, label %_ZN4lean10object_refD2Ev.exit12

41:                                               ; preds = %_ZN4lean10object_refD2Ev.exit
  %42 = load i32, ptr %38, align 4, !tbaa !8
  %43 = icmp sgt i32 %42, 1
  br i1 %43, label %44, label %46, !prof !11

44:                                               ; preds = %41
  %45 = add nsw i32 %42, -1
  store i32 %45, ptr %38, align 4, !tbaa !8
  br label %_ZN4lean10object_refD2Ev.exit12

46:                                               ; preds = %41
  %.not.i.i.i11 = icmp eq i32 %42, 0
  br i1 %.not.i.i.i11, label %_ZN4lean10object_refD2Ev.exit12, label %47

47:                                               ; preds = %46
  invoke void @lean_dec_ref_cold(ptr noundef nonnull %38)
          to label %_ZN4lean10object_refD2Ev.exit12 unwind label %48

48:                                               ; preds = %47
  %49 = landingpad { ptr, i32 }
          catch ptr null
  %50 = extractvalue { ptr, i32 } %49, 0
  call void @__clang_call_terminate(ptr %50) #15
  unreachable

_ZN4lean10object_refD2Ev.exit12:                  ; preds = %_ZN4lean10object_refD2Ev.exit, %44, %46, %47
  call void @llvm.lifetime.end.p0(i64 8, ptr nonnull %5) #14
  %51 = load ptr, ptr %4, align 8, !tbaa !3
  %52 = ptrtoint ptr %51 to i64
  %53 = and i64 %52, 1
  %.not.i.i13 = icmp eq i64 %53, 0
  br i1 %.not.i.i13, label %54, label %_ZN4lean10object_refD2Ev.exit15

54:                                               ; preds = %_ZN4lean10object_refD2Ev.exit12
  %55 = load i32, ptr %51, align 4, !tbaa !8
  %56 = icmp sgt i32 %55, 1
  br i1 %56, label %57, label %59, !prof !11

57:                                               ; preds = %54
  %58 = add nsw i32 %55, -1
  store i32 %58, ptr %51, align 4, !tbaa !8
  br label %_ZN4lean10object_refD2Ev.exit15

59:                                               ; preds = %54
  %.not.i.i.i14 = icmp eq i32 %55, 0
  br i1 %.not.i.i.i14, label %_ZN4lean10object_refD2Ev.exit15, label %60

60:                                               ; preds = %59
  invoke void @lean_dec_ref_cold(ptr noundef nonnull %51)
          to label %_ZN4lean10object_refD2Ev.exit15 unwind label %61

61:                                               ; preds = %60
  %62 = landingpad { ptr, i32 }
          catch ptr null
  %63 = extractvalue { ptr, i32 } %62, 0
  call void @__clang_call_terminate(ptr %63) #15
  unreachable

_ZN4lean10object_refD2Ev.exit15:                  ; preds = %_ZN4lean10object_refD2Ev.exit12, %57, %59, %60
  call void @llvm.lifetime.end.p0(i64 8, ptr nonnull %4) #14
  ret void

64:                                               ; preds = %3
  %65 = landingpad { ptr, i32 }
          cleanup
  br label %71

66:                                               ; preds = %17
  %67 = landingpad { ptr, i32 }
          cleanup
  br label %70

68:                                               ; preds = %23
  %69 = landingpad { ptr, i32 }
          cleanup
  call void @_ZN4lean10object_refD2Ev(ptr noundef nonnull align 8 dereferenceable(8) %6) #14
  br label %70

70:                                               ; preds = %68, %66
  %.pn = phi { ptr, i32 } [ %69, %68 ], [ %67, %66 ]
  call void @llvm.lifetime.end.p0(i64 8, ptr nonnull %6) #14
  call void @_ZN4lean10object_refD2Ev(ptr noundef nonnull align 8 dereferenceable(8) %5) #14
  br label %71

71:                                               ; preds = %70, %64
  %.pn.pn = phi { ptr, i32 } [ %.pn, %70 ], [ %65, %64 ]
  call void @llvm.lifetime.end.p0(i64 8, ptr nonnull %5) #14
  call void @_ZN4lean10object_refD2Ev(ptr noundef nonnull align 8 dereferenceable(8) %4) #14
  call void @llvm.lifetime.end.p0(i64 8, ptr nonnull %4) #14
  resume { ptr, i32 } %.pn.pn
}